target datalayout = "e-m:e-p270:32:32-p271:32:32-p272:64:64-i64:64-i128:128-f80:128-n8:16:32:64-S128"
target triple = "x86_64-pc-linux-gnu"

%struct.AVRational = type { i32, i32 }
%struct.AVStream = type { ptr, i32, i32, ptr, ptr, %struct.AVRational, i64, i64, i64, i32, i32, %struct.AVRational, ptr, %struct.AVRational, %struct.AVPacket, i32, %struct.AVRational, i32 }
%struct.AVPacket = type { ptr, i64, i64, ptr, i32, i32, i32, ptr, i32, i64, i64, ptr, ptr, %struct.AVRational }
%struct.FFStream = type { %struct.AVStream, ptr, i32, ptr, i32, ptr, i32, %struct.anon, i32, i32, %struct.FFFrac, ptr, ptr, i32, i32, i64, i64, i32, i32, i32, i64, i64, i64, i32, i64, i64, i64, i32, i32, [17 x i64], [17 x i8], [17 x i64], i64, i8, i8, %struct.AVRational, %struct.AVProbeData, ptr, i64, i32, i32, i32, ptr, i32, i32, i64, i64, ptr, %struct.AVRational }
%struct.anon = type { ptr, i32 }
%struct.FFFrac = type { i64, i64, i64 }
%struct.AVProbeData = type { ptr, ptr, i32, ptr }
%struct.AVChannelLayout = type { i32, i32, %union.anon.3, ptr }
%union.anon.3 = type { i64 }
%struct.AVCodecContext = type { ptr, i32, i32, ptr, i32, i32, ptr, ptr, ptr, i64, i32, i32, ptr, i32, %struct.AVRational, %struct.AVRational, %struct.AVRational, i32, i32, i32, i32, i32, %struct.AVRational, i32, i32, i32, i32, i32, i32, i32, i32, i32, i32, i32, ptr, ptr, i32, float, float, float, float, float, float, float, float, float, i32, i32, i32, i32, i32, i32, i32, i32, i32, i32, i32, i32, ptr, ptr, ptr, i32, i32, i32, i32, i32, i32, i32, i32, i32, i32, %struct.AVChannelLayout, i32, i32, i32, i32, i32, i32, i32, i32, ptr, i32, i32, i32, float, float, i32, i32, i32, i32, i32, ptr, i64, i64, float, float, i32, i32, ptr, ptr, i32, i32, i32, i32, i32, ptr, ptr, ptr, ptr, i32, i32, [8 x i64], i32, i32, i32, i32, i32, i32, i32, ptr, ptr, i32, i32, i32, i32, i32, i32, i32, i32, i32, i32, ptr, ptr, i32, i32, ptr, ptr, ptr, ptr, i32, i32, i64, i32, i32, i64, ptr, i64, ptr, i32, ptr, i32 }

; Function Attrs: alwaysinline nounwind uwtable
define internal ptr @cffstream(ptr noundef %0) #2 {
  %2 = alloca ptr, align 8
  store ptr %0, ptr %2, align 8, !tbaa !10
  %3 = load ptr, ptr %2, align 8, !tbaa !10
  ret ptr %3
}

; Function Attrs: nounwind uwtable
define i64 @av_stream_get_codec_timebase(ptr noundef %0) #0 {
  %2 = alloca %struct.AVRational, align 4
  %3 = alloca ptr, align 8
  store ptr %0, ptr %3, align 8, !tbaa !10
  %4 = load ptr, ptr %3, align 8, !tbaa !10
  %5 = call ptr @cffstream(ptr noundef %4)
  %6 = getelementptr inbounds nuw %struct.FFStream, ptr %5, i32 0, i32 5
  %7 = load ptr, ptr %6, align 8, !tbaa !166
  %8 = icmp ne ptr %7, null
  br i1 %8, label %9, label %15

9:                                                ; preds = %1
  %10 = load ptr, ptr %3, align 8, !tbaa !10
  %11 = call ptr @cffstream(ptr noundef %10)
  %12 = getelementptr inbounds nuw %struct.FFStream, ptr %11, i32 0, i32 5
  %13 = load ptr, ptr %12, align 8, !tbaa !166
  %14 = getelementptr inbounds nuw %struct.AVCodecContext, ptr %13, i32 0, i32 14
  call void @llvm.memcpy.p0.p0.i64(ptr align 4 %2, ptr align 4 %14, i64 8, i1 false), !tbaa.struct !90
  br label %19

15:                                               ; preds = %1
  %16 = load ptr, ptr %3, align 8, !tbaa !10
  %17 = call ptr @cffstream(ptr noundef %16)
  %18 = getelementptr inbounds nuw %struct.FFStream, ptr %17, i32 0, i32 48
  call void @llvm.memcpy.p0.p0.i64(ptr align 4 %2, ptr align 8 %18, i64 8, i1 false), !tbaa.struct !90
  br label %19

19:                                               ; preds = %15, %9
  %20 = load i64, ptr %2, align 4
  ret i64 %20
}