; Function Attrs: mustprogress nofree norecurse nosync nounwind willreturn memory(read, inaccessiblemem: none) uwtable
define i64 @av_stream_get_codec_timebase(ptr noundef readonly captures(none) %0) local_unnamed_addr #11 {
  %2 = getelementptr inbounds nuw i8, ptr %0, i64 248
  %3 = load ptr, ptr %2, align 8, !tbaa !141
  %.not = icmp eq ptr %3, null
  %4 = getelementptr inbounds nuw i8, ptr %3, i64 84
  %5 = getelementptr inbounds nuw i8, ptr %0, i64 856
  %.sroa.0.0.in = select i1 %.not, ptr %5, ptr %4
  %.sroa.0.0 = load i64, ptr %.sroa.0.0.in, align 4
  ret i64 %.sroa.0.0
}